target datalayout = "e-m:e-p270:32:32-p271:32:32-p272:64:64-i64:64-i128:128-f80:128-n8:16:32:64-S128"
target triple = "x86_64-pc-linux-gnu"

%struct._packet_info = type { ptr, ptr, i32, i32, %struct.nstime_t, %struct.nstime_t, %struct.nstime_t, i8, ptr, ptr, ptr, ptr, %struct._address, %struct._address, %struct._address, %struct._address, %struct._address, %struct._address, i32, ptr, i8, [3 x i8], %struct.anon, i32, i32, i32, i32, ptr, i8, ptr, ptr, i16, i16, i32, i32, i16, i32, i32, ptr, ptr, ptr, i8, i8, i16, i16, i16, i32, i16, i16, ptr, ptr, ptr, ptr, ptr, i32, i32 }
%struct.nstime_t = type { i64, i32 }
%struct._address = type { i32, i32, ptr, ptr }
%struct.anon = type { i8, [3 x i8] }

@.str.28 = private unnamed_addr constant [9 x i8] c"Reserved\00", align 1
@hf_btsmp_initiator_key_distribution = internal global i32 0, align 4
@hf_btsmp_responder_key_distribution = internal global i32 0, align 4
@ett_btsmp_key_dist = internal global i32 0, align 4
@.str.123 = private unnamed_addr constant [1 x i8] zeroinitializer, align 1
@.str.124 = private unnamed_addr constant [3 x i8] c", \00", align 1
@.str.128 = private unnamed_addr constant [22 x i8] c" | Initiator Key(s): \00", align 1
@hfx_btsmp_key_distribution = internal constant [6 x ptr] [ptr @hf_btsmp_key_dist_reserved, ptr @hf_btsmp_key_dist_linkkey, ptr @hf_btsmp_key_dist_sign, ptr @hf_btsmp_key_dist_id, ptr @hf_btsmp_key_dist_enc, ptr null], align 16
@.str.129 = private unnamed_addr constant [22 x i8] c" | Responder Key(s): \00", align 1
@.str.130 = private unnamed_addr constant [4 x i8] c"LTK\00", align 1
@.str.131 = private unnamed_addr constant [4 x i8] c"IRK\00", align 1
@.str.132 = private unnamed_addr constant [5 x i8] c"CSRK\00", align 1
@.str.133 = private unnamed_addr constant [8 x i8] c"Linkkey\00", align 1
@.str.134 = private unnamed_addr constant [7 x i8] c"<none>\00", align 1

; Function Attrs: null_pointer_is_valid sspstrong uwtable
define internal i32 @dissect_btsmp_key_dist(ptr noundef %0, i32 noundef %1, ptr noundef %2, ptr noundef %3, i1 noundef zeroext %4) #0 {
  %6 = alloca ptr, align 8
  %7 = alloca i32, align 4
  %8 = alloca ptr, align 8
  %9 = alloca ptr, align 8
  %10 = alloca i8, align 1
  %11 = alloca i8, align 1
  %12 = alloca i8, align 1
  store ptr %0, ptr %6, align 8
  store i32 %1, ptr %7, align 4
  store ptr %2, ptr %8, align 8
  store ptr %3, ptr %9, align 8
  %13 = zext i1 %4 to i8
  store i8 %13, ptr %10, align 1
  call void @llvm.lifetime.start.p0(i64 1, ptr %11) #3
  call void @llvm.lifetime.start.p0(i64 1, ptr %12) #3
  store i8 0, ptr %12, align 1
  %14 = load i8, ptr %10, align 1, !range !6, !noundef !7
  %15 = trunc i8 %14 to i1
  br i1 %15, label %16, label %26

16:                                               ; preds = %5
  %17 = load ptr, ptr %8, align 8
  %18 = getelementptr inbounds nuw %struct._packet_info, ptr %17, i32 0, i32 1
  %19 = load ptr, ptr %18, align 8
  call void @col_append_str(ptr noundef %19, i32 noundef 25, ptr noundef @.str.128)
  %20 = load ptr, ptr %9, align 8
  %21 = load ptr, ptr %6, align 8
  %22 = load i32, ptr %7, align 4
  %23 = load i32, ptr @hf_btsmp_initiator_key_distribution, align 4
  %24 = load i32, ptr @ett_btsmp_key_dist, align 4
  %25 = call ptr @proto_tree_add_bitmask(ptr noundef %20, ptr noundef %21, i32 noundef %22, i32 noundef %23, i32 noundef %24, ptr noundef @hfx_btsmp_key_distribution, i32 noundef -2147483648)
  br label %36

26:                                               ; preds = %5
  %27 = load ptr, ptr %8, align 8
  %28 = getelementptr inbounds nuw %struct._packet_info, ptr %27, i32 0, i32 1
  %29 = load ptr, ptr %28, align 8
  call void @col_append_str(ptr noundef %29, i32 noundef 25, ptr noundef @.str.129)
  %30 = load ptr, ptr %9, align 8
  %31 = load ptr, ptr %6, align 8
  %32 = load i32, ptr %7, align 4
  %33 = load i32, ptr @hf_btsmp_responder_key_distribution, align 4
  %34 = load i32, ptr @ett_btsmp_key_dist, align 4
  %35 = call ptr @proto_tree_add_bitmask(ptr noundef %30, ptr noundef %31, i32 noundef %32, i32 noundef %33, i32 noundef %34, ptr noundef @hfx_btsmp_key_distribution, i32 noundef -2147483648)
  br label %36

36:                                               ; preds = %26, %16
  %37 = load ptr, ptr %6, align 8
  %38 = load i32, ptr %7, align 4
  %39 = call zeroext i8 @tvb_get_uint8(ptr noundef %37, i32 noundef %38)
  store i8 %39, ptr %11, align 1
  %40 = load i8, ptr %11, align 1
  %41 = zext i8 %40 to i32
  %42 = and i32 %41, 1
  %43 = icmp ne i32 %42, 0
  br i1 %43, label %44, label %48

44:                                               ; preds = %36
  %45 = load ptr, ptr %8, align 8
  %46 = getelementptr inbounds nuw %struct._packet_info, ptr %45, i32 0, i32 1
  %47 = load ptr, ptr %46, align 8
  call void @col_append_str(ptr noundef %47, i32 noundef 25, ptr noundef @.str.130)
  store i8 1, ptr %12, align 1
  br label %48

48:                                               ; preds = %44, %36
  %49 = load i8, ptr %11, align 1
  %50 = zext i8 %49 to i32
  %51 = and i32 %50, 2
  %52 = icmp ne i32 %51, 0
  br i1 %52, label %53, label %60

53:                                               ; preds = %48
  %54 = load ptr, ptr %8, align 8
  %55 = getelementptr inbounds nuw %struct._packet_info, ptr %54, i32 0, i32 1
  %56 = load ptr, ptr %55, align 8
  %57 = load i8, ptr %12, align 1, !range !6, !noundef !7
  %58 = trunc i8 %57 to i1
  %59 = select i1 %58, ptr @.str.124, ptr @.str.123
  call void @col_append_sep_str(ptr noundef %56, i32 noundef 25, ptr noundef %59, ptr noundef @.str.131)
  store i8 1, ptr %12, align 1
  br label %60

60:                                               ; preds = %53, %48
  %61 = load i8, ptr %11, align 1
  %62 = zext i8 %61 to i32
  %63 = and i32 %62, 4
  %64 = icmp ne i32 %63, 0
  br i1 %64, label %65, label %72

65:                                               ; preds = %60
  %66 = load ptr, ptr %8, align 8
  %67 = getelementptr inbounds nuw %struct._packet_info, ptr %66, i32 0, i32 1
  %68 = load ptr, ptr %67, align 8
  %69 = load i8, ptr %12, align 1, !range !6, !noundef !7
  %70 = trunc i8 %69 to i1
  %71 = select i1 %70, ptr @.str.124, ptr @.str.123
  call void @col_append_sep_str(ptr noundef %68, i32 noundef 25, ptr noundef %71, ptr noundef @.str.132)
  store i8 1, ptr %12, align 1
  br label %72

72:                                               ; preds = %65, %60
  %73 = load i8, ptr %11, align 1
  %74 = zext i8 %73 to i32
  %75 = and i32 %74, 8
  %76 = icmp ne i32 %75, 0
  br i1 %76, label %77, label %84

77:                                               ; preds = %72
  %78 = load ptr, ptr %8, align 8
  %79 = getelementptr inbounds nuw %struct._packet_info, ptr %78, i32 0, i32 1
  %80 = load ptr, ptr %79, align 8
  %81 = load i8, ptr %12, align 1, !range !6, !noundef !7
  %82 = trunc i8 %81 to i1
  %83 = select i1 %82, ptr @.str.124, ptr @.str.123
  call void @col_append_sep_str(ptr noundef %80, i32 noundef 25, ptr noundef %83, ptr noundef @.str.133)
  store i8 1, ptr %12, align 1
  br label %84

84:                                               ; preds = %77, %72
  %85 = load i8, ptr %11, align 1
  %86 = zext i8 %85 to i32
  %87 = and i32 %86, 240
  %88 = icmp ne i32 %87, 0
  br i1 %88, label %89, label %96

89:                                               ; preds = %84
  %90 = load ptr, ptr %8, align 8
  %91 = getelementptr inbounds nuw %struct._packet_info, ptr %90, i32 0, i32 1
  %92 = load ptr, ptr %91, align 8
  %93 = load i8, ptr %12, align 1, !range !6, !noundef !7
  %94 = trunc i8 %93 to i1
  %95 = select i1 %94, ptr @.str.124, ptr @.str.123
  call void @col_append_sep_str(ptr noundef %92, i32 noundef 25, ptr noundef %95, ptr noundef @.str.28)
  br label %96

96:                                               ; preds = %89, %84
  %97 = load i8, ptr %12, align 1, !range !6, !noundef !7
  %98 = trunc i8 %97 to i1
  br i1 %98, label %103, label %99

99:                                               ; preds = %96
  %100 = load ptr, ptr %8, align 8
  %101 = getelementptr inbounds nuw %struct._packet_info, ptr %100, i32 0, i32 1
  %102 = load ptr, ptr %101, align 8
  call void @col_append_str(ptr noundef %102, i32 noundef 25, ptr noundef @.str.134)
  br label %103

103:                                              ; preds = %99, %96
  %104 = load i32, ptr %7, align 4
  %105 = add i32 %104, 1
  call void @llvm.lifetime.end.p0(i64 1, ptr %12) #3
  call void @llvm.lifetime.end.p0(i64 1, ptr %11) #3
  ret i32 %105
}