; Function Attrs: null_pointer_is_valid sspstrong uwtable
define internal fastcc noundef i32 @dissect_btsmp_key_dist(ptr noundef %0, i32 noundef %1, ptr noundef readonly captures(none) %2, ptr noundef %3, i1 noundef zeroext %4) unnamed_addr #0 {
  %6 = getelementptr inbounds nuw i8, ptr %2, i64 8
  %7 = load ptr, ptr %6, align 8
  %.str.128..str.129 = select i1 %4, ptr @.str.128, ptr @.str.129
  tail call void @col_append_str(ptr noundef %7, i32 noundef 25, ptr noundef nonnull %.str.128..str.129)
  %hf_btsmp_initiator_key_distribution.val = load i32, ptr @hf_btsmp_initiator_key_distribution, align 4
  %hf_btsmp_responder_key_distribution.val = load i32, ptr @hf_btsmp_responder_key_distribution, align 4
  %8 = select i1 %4, i32 %hf_btsmp_initiator_key_distribution.val, i32 %hf_btsmp_responder_key_distribution.val
  %9 = load i32, ptr @ett_btsmp_key_dist, align 4
  %10 = tail call ptr @proto_tree_add_bitmask(ptr noundef %3, ptr noundef %0, i32 noundef %1, i32 noundef %8, i32 noundef %9, ptr noundef nonnull @hfx_btsmp_key_distribution, i32 noundef -2147483648)
  %11 = tail call zeroext i8 @tvb_get_uint8(ptr noundef %0, i32 noundef %1)
  %12 = zext i8 %11 to i32
  %13 = and i32 %12, 1
  %.not = icmp eq i32 %13, 0
  br i1 %.not, label %17, label %14

14:                                               ; preds = %5
  %15 = getelementptr inbounds nuw i8, ptr %2, i64 8
  %16 = load ptr, ptr %15, align 8
  tail call void @col_append_str(ptr noundef %16, i32 noundef 25, ptr noundef nonnull @.str.130)
  br label %17

17:                                               ; preds = %14, %5
  %.0 = phi i8 [ 1, %14 ], [ 0, %5 ]
  %18 = and i32 %12, 2
  %.not27 = icmp eq i32 %18, 0
  br i1 %.not27, label %24, label %19

19:                                               ; preds = %17
  %20 = getelementptr inbounds nuw i8, ptr %2, i64 8
  %21 = load ptr, ptr %20, align 8
  %22 = trunc nuw i8 %.0 to i1
  %23 = select i1 %22, ptr @.str.124, ptr @.str.123
  tail call void @col_append_sep_str(ptr noundef %21, i32 noundef 25, ptr noundef nonnull %23, ptr noundef nonnull @.str.131)
  br label %24

24:                                               ; preds = %19, %17
  %.1 = phi i8 [ 1, %19 ], [ %.0, %17 ]
  %25 = and i32 %12, 4
  %.not28 = icmp eq i32 %25, 0
  br i1 %.not28, label %31, label %26

26:                                               ; preds = %24
  %27 = getelementptr inbounds nuw i8, ptr %2, i64 8
  %28 = load ptr, ptr %27, align 8
  %29 = trunc nuw i8 %.1 to i1
  %30 = select i1 %29, ptr @.str.124, ptr @.str.123
  tail call void @col_append_sep_str(ptr noundef %28, i32 noundef 25, ptr noundef nonnull %30, ptr noundef nonnull @.str.132)
  br label %31

31:                                               ; preds = %26, %24
  %.2 = phi i8 [ 1, %26 ], [ %.1, %24 ]
  %32 = and i32 %12, 8
  %.not29 = icmp eq i32 %32, 0
  br i1 %.not29, label %38, label %33

33:                                               ; preds = %31
  %34 = getelementptr inbounds nuw i8, ptr %2, i64 8
  %35 = load ptr, ptr %34, align 8
  %36 = trunc nuw i8 %.2 to i1
  %37 = select i1 %36, ptr @.str.124, ptr @.str.123
  tail call void @col_append_sep_str(ptr noundef %35, i32 noundef 25, ptr noundef nonnull %37, ptr noundef nonnull @.str.133)
  br label %38

38:                                               ; preds = %33, %31
  %.3 = phi i8 [ 1, %33 ], [ %.2, %31 ]
  %.not30 = icmp ult i8 %11, 16
  br i1 %.not30, label %._crit_edge, label %39

._crit_edge:                                      ; preds = %38
  %.pre = trunc nuw i8 %.3 to i1
  br i1 %.pre, label %47, label %44

39:                                               ; preds = %38
  %40 = getelementptr inbounds nuw i8, ptr %2, i64 8
  %41 = load ptr, ptr %40, align 8
  %42 = trunc nuw i8 %.3 to i1
  %43 = select i1 %42, ptr @.str.124, ptr @.str.123
  tail call void @col_append_sep_str(ptr noundef %41, i32 noundef 25, ptr noundef nonnull %43, ptr noundef nonnull @.str.28)
  br i1 %42, label %47, label %44

44:                                               ; preds = %._crit_edge, %39
  %45 = getelementptr inbounds nuw i8, ptr %2, i64 8
  %46 = load ptr, ptr %45, align 8
  tail call void @col_append_str(ptr noundef %46, i32 noundef 25, ptr noundef nonnull @.str.134)
  br label %47

47:                                               ; preds = %._crit_edge, %44, %39
  %48 = add i32 %1, 1
  ret i32 %48
}